; Function Attrs: mustprogress uwtable
define noundef zeroext i1 @_ZNK3nix9PublicKey18verifyDetachedAnonESt17basic_string_viewIcSt11char_traitsIcEES4_(ptr nocapture noundef nonnull readonly align 8 dereferenceable(64) %0, i64 %1, ptr %2, i64 %3, ptr %4) local_unnamed_addr #2 align 2 personality ptr @__gxx_personality_v0 {
  %6 = alloca %"class.std::__cxx11::basic_string", align 8
  %7 = alloca %"class.std::__cxx11::basic_string", align 8
  %8 = alloca %"class.std::allocator", align 1
  call void @_ZN3nix12base64DecodeB5cxx11ESt17basic_string_viewIcSt11char_traitsIcEE(ptr dead_on_unwind nonnull writable sret(%"class.std::__cxx11::basic_string") align 8 %6, i64 %3, ptr %4)
  %9 = getelementptr inbounds i8, ptr %6, i64 8
  %10 = load i64, ptr %9, align 8
  %.not = icmp eq i64 %10, 64
  br i1 %.not, label %19, label %11

11:                                               ; preds = %5
  %12 = call ptr @__cxa_allocate_exception(i64 376) #20
  call void @_ZNSaIcEC1Ev(ptr noundef nonnull align 1 dereferenceable(1) %8) #20
  invoke void @_ZNSt7__cxx1112basic_stringIcSt11char_traitsIcESaIcEEC2IS3_EEPKcRKS3_(ptr noundef nonnull align 8 dereferenceable(32) %7, ptr noundef nonnull @.str.8, ptr noundef nonnull align 1 dereferenceable(1) %8)
          to label %13 unwind label %.thread

13:                                               ; preds = %11
  invoke void @_ZN3nix5ErrorCI2NS_9BaseErrorEIJEEERKNSt7__cxx1112basic_stringIcSt11char_traitsIcESaIcEEEDpRKT_(ptr noundef nonnull align 8 dereferenceable(376) %12, ptr noundef nonnull align 8 dereferenceable(32) %7)
          to label %14 unwind label %16

14:                                               ; preds = %13
  invoke void @__cxa_throw(ptr nonnull %12, ptr nonnull @_ZTIN3nix5ErrorE, ptr nonnull @_ZN3nix5ErrorD2Ev) #21
          to label %34 unwind label %16

.thread:                                          ; preds = %11
  %15 = landingpad { ptr, i32 }
          cleanup
  call void @_ZNSaIcED1Ev(ptr noundef nonnull align 1 dereferenceable(1) %8) #20
  br label %18

16:                                               ; preds = %13, %14
  %.0 = phi i1 [ false, %14 ], [ true, %13 ]
  %17 = landingpad { ptr, i32 }
          cleanup
  call void @_ZNSt7__cxx1112basic_stringIcSt11char_traitsIcESaIcEED2Ev(ptr noundef nonnull align 8 dereferenceable(32) %7) #20
  call void @_ZNSaIcED1Ev(ptr noundef nonnull align 1 dereferenceable(1) %8) #20
  br i1 %.0, label %18, label %33

18:                                               ; preds = %.thread, %16
  %.pn13 = phi { ptr, i32 } [ %15, %.thread ], [ %17, %16 ]
  call void @__cxa_free_exception(ptr %12) #20
  br label %33

19:                                               ; preds = %5
  %20 = load ptr, ptr %6, align 8
  %21 = getelementptr inbounds i8, ptr %0, i64 32
  %22 = load ptr, ptr %21, align 8
  %23 = invoke i32 @crypto_sign_verify_detached(ptr noundef %20, ptr noundef %2, i64 noundef %1, ptr noundef %22)
          to label %24 unwind label %31

24:                                               ; preds = %19
  %25 = load ptr, ptr %6, align 8
  %26 = getelementptr inbounds i8, ptr %6, i64 16
  %27 = icmp eq ptr %25, %26
  br i1 %27, label %_ZNKSt7__cxx1112basic_stringIcSt11char_traitsIcESaIcEE11_M_is_localEv.exit.thread.i.i, label %_ZNKSt7__cxx1112basic_stringIcSt11char_traitsIcESaIcEE11_M_is_localEv.exit.i.i

_ZNKSt7__cxx1112basic_stringIcSt11char_traitsIcESaIcEE11_M_is_localEv.exit.thread.i.i: ; preds = %24
  %28 = load i64, ptr %9, align 8
  %29 = icmp ult i64 %28, 16
  call void @llvm.assume(i1 %29)
  br label %_ZNSt7__cxx1112basic_stringIcSt11char_traitsIcESaIcEED2Ev.exit

_ZNKSt7__cxx1112basic_stringIcSt11char_traitsIcESaIcEE11_M_is_localEv.exit.i.i: ; preds = %24
  call void @_ZdlPv(ptr noundef %25) #22
  br label %_ZNSt7__cxx1112basic_stringIcSt11char_traitsIcESaIcEED2Ev.exit

_ZNSt7__cxx1112basic_stringIcSt11char_traitsIcESaIcEED2Ev.exit: ; preds = %_ZNKSt7__cxx1112basic_stringIcSt11char_traitsIcESaIcEE11_M_is_localEv.exit.thread.i.i, %_ZNKSt7__cxx1112basic_stringIcSt11char_traitsIcESaIcEE11_M_is_localEv.exit.i.i
  %30 = icmp eq i32 %23, 0
  call void @_ZNSaIcED2Ev(ptr noundef nonnull align 1 dereferenceable(1) %6) #20
  ret i1 %30

31:                                               ; preds = %19
  %32 = landingpad { ptr, i32 }
          cleanup
  br label %33

33:                                               ; preds = %16, %18, %31
  %.pn.pn = phi { ptr, i32 } [ %.pn13, %18 ], [ %17, %16 ], [ %32, %31 ]
  call void @_ZNSt7__cxx1112basic_stringIcSt11char_traitsIcESaIcEED2Ev(ptr noundef nonnull align 8 dereferenceable(32) %6) #20
  resume { ptr, i32 } %.pn.pn

34:                                               ; preds = %14
  unreachable
}